; Function Attrs: mustprogress nofree norecurse nosync nounwind willreturn memory(argmem: readwrite) uwtable
define hidden void @_ZN12opencv_caffe12ExpParameter12InternalSwapEPS0_(ptr noundef nonnull align 8 captures(none) dereferenceable(40) %0, ptr noundef captures(none) %1) local_unnamed_addr #13 align 2 {
  %3 = getelementptr inbounds nuw i8, ptr %0, i64 8
  %4 = getelementptr inbounds nuw i8, ptr %1, i64 8
  %5 = load i64, ptr %3, align 8, !tbaa !42
  %6 = load i64, ptr %4, align 8, !tbaa !42
  store i64 %6, ptr %3, align 8, !tbaa !42
  store i64 %5, ptr %4, align 8, !tbaa !42
  %7 = getelementptr inbounds nuw i8, ptr %0, i64 16
  %8 = getelementptr inbounds nuw i8, ptr %1, i64 16
  %9 = load i32, ptr %7, align 8, !tbaa !71
  %10 = load i32, ptr %8, align 4, !tbaa !71
  store i32 %10, ptr %7, align 8, !tbaa !71
  store i32 %9, ptr %8, align 4, !tbaa !71
  %11 = getelementptr inbounds nuw i8, ptr %0, i64 24
  %12 = getelementptr inbounds nuw i8, ptr %1, i64 24
  %13 = load float, ptr %11, align 8, !tbaa !83
  %14 = load float, ptr %12, align 4, !tbaa !83
  store float %14, ptr %11, align 8, !tbaa !83
  store float %13, ptr %12, align 4, !tbaa !83
  %15 = getelementptr inbounds nuw i8, ptr %0, i64 28
  %16 = getelementptr inbounds nuw i8, ptr %1, i64 28
  %17 = load float, ptr %15, align 4, !tbaa !83
  %18 = load float, ptr %16, align 4, !tbaa !83
  store float %18, ptr %15, align 4, !tbaa !83
  store float %17, ptr %16, align 4, !tbaa !83
  %19 = getelementptr inbounds nuw i8, ptr %0, i64 32
  %20 = getelementptr inbounds nuw i8, ptr %1, i64 32
  %21 = load float, ptr %19, align 8, !tbaa !83
  %22 = load float, ptr %20, align 4, !tbaa !83
  store float %22, ptr %19, align 8, !tbaa !83
  store float %21, ptr %20, align 4, !tbaa !83
  ret void
}